target datalayout = "e-m:e-p270:32:32-p271:32:32-p272:64:64-i64:64-i128:128-f80:128-n8:16:32:64-S128"
target triple = "x86_64-pc-linux-gnu"

%struct._zval_struct = type { %union._zend_value, %union.anon.0, %union.anon.3 }
%union._zend_value = type { i64 }
%union.anon.0 = type { i32 }
%union.anon.3 = type { i32 }
%struct._zend_array = type { %struct._zend_refcounted_h, %union.anon.4, i32, %union.anon.6, i32, i32, i32, i32, i64, ptr }
%struct._zend_refcounted_h = type { i32, %union.anon }
%union.anon = type { i32 }
%union.anon.4 = type { i32 }
%union.anon.6 = type { ptr }
%struct._zend_object = type { %struct._zend_refcounted_h, i32, ptr, ptr, ptr, [1 x %struct._zval_struct] }
%struct._zend_class_entry = type { i8, ptr, %union.anon.7, i32, i32, i32, i32, ptr, ptr, ptr, %struct._zend_array, %struct._zend_array, %struct._zend_array, ptr, ptr, ptr, ptr, ptr, ptr, ptr, ptr, ptr, ptr, ptr, ptr, ptr, ptr, ptr, ptr, ptr, ptr, ptr, %union.anon.8, ptr, ptr, ptr, ptr, i32, i32, %union.anon.9, ptr, ptr, ptr, ptr, i32, ptr, ptr, %union.anon.10 }
%union.anon.7 = type { ptr }
%union.anon.8 = type { ptr }
%union.anon.9 = type { ptr }
%union.anon.10 = type { %struct.anon.11 }
%struct.anon.11 = type { ptr, i32, i32 }

; Function Attrs: nounwind uwtable
define ptr @zend_objects_new(ptr noundef %0) #0 {
  %2 = alloca ptr, align 8
  %3 = alloca i32, align 4
  %4 = alloca ptr, align 8
  %5 = alloca ptr, align 8
  %6 = alloca ptr, align 8
  %7 = alloca ptr, align 8
  %8 = alloca ptr, align 8
  %9 = alloca ptr, align 8
  store ptr %0, ptr %8, align 8
  %10 = load ptr, ptr %8, align 8
  store ptr %10, ptr %4, align 8
  %11 = load ptr, ptr %4, align 8
  %12 = getelementptr inbounds %struct._zend_class_entry, ptr %11, i32 0, i32 5
  %13 = load i32, ptr %12, align 8
  %14 = load ptr, ptr %4, align 8
  %15 = getelementptr inbounds %struct._zend_class_entry, ptr %14, i32 0, i32 4
  %16 = load i32, ptr %15, align 4
  %17 = and i32 %16, 2048
  %18 = icmp ne i32 %17, 0
  %19 = select i1 %18, i32 0, i32 1
  %20 = sub nsw i32 %13, %19
  %21 = sext i32 %20 to i64
  %22 = mul i64 16, %21
  %23 = add i64 56, %22
  %24 = call noalias ptr @_emalloc(i64 noundef %23) #8
  store ptr %24, ptr %9, align 8
  %25 = load ptr, ptr %9, align 8
  %26 = load ptr, ptr %8, align 8
  store ptr %25, ptr %5, align 8
  store ptr %26, ptr %6, align 8
  %27 = load ptr, ptr %5, align 8
  store ptr %27, ptr %2, align 8
  store i32 1, ptr %3, align 4
  %28 = load i32, ptr %3, align 4
  %29 = load ptr, ptr %2, align 8
  store i32 %28, ptr %29, align 4
  %30 = load ptr, ptr %5, align 8
  %31 = getelementptr inbounds %struct._zend_refcounted_h, ptr %30, i32 0, i32 1
  store i32 8, ptr %31, align 4
  %32 = load ptr, ptr %6, align 8
  %33 = load ptr, ptr %5, align 8
  %34 = getelementptr inbounds %struct._zend_object, ptr %33, i32 0, i32 2
  store ptr %32, ptr %34, align 8
  %35 = load ptr, ptr %6, align 8
  %36 = getelementptr inbounds %struct._zend_class_entry, ptr %35, i32 0, i32 29
  %37 = load ptr, ptr %36, align 8
  %38 = load ptr, ptr %5, align 8
  %39 = getelementptr inbounds %struct._zend_object, ptr %38, i32 0, i32 3
  store ptr %37, ptr %39, align 8
  %40 = load ptr, ptr %5, align 8
  %41 = getelementptr inbounds %struct._zend_object, ptr %40, i32 0, i32 4
  store ptr null, ptr %41, align 8
  %42 = load ptr, ptr %5, align 8
  call void @zend_objects_store_put(ptr noundef %42) #6
  %43 = load ptr, ptr %6, align 8
  %44 = getelementptr inbounds %struct._zend_class_entry, ptr %43, i32 0, i32 4
  %45 = load i32, ptr %44, align 4
  %46 = and i32 %45, 2048
  %47 = icmp ne i32 %46, 0
  br i1 %47, label %48, label %62

48:                                               ; preds = %1
  %49 = load ptr, ptr %5, align 8
  %50 = getelementptr inbounds %struct._zend_object, ptr %49, i32 0, i32 5
  %51 = load ptr, ptr %5, align 8
  %52 = getelementptr inbounds %struct._zend_object, ptr %51, i32 0, i32 2
  %53 = load ptr, ptr %52, align 8
  %54 = getelementptr inbounds %struct._zend_class_entry, ptr %53, i32 0, i32 5
  %55 = load i32, ptr %54, align 8
  %56 = sext i32 %55 to i64
  %57 = getelementptr inbounds %struct._zval_struct, ptr %50, i64 %56
  store ptr %57, ptr %7, align 8
  %58 = load ptr, ptr %7, align 8
  %59 = getelementptr inbounds %struct._zval_struct, ptr %58, i32 0, i32 1
  store i32 0, ptr %59, align 8
  %60 = load ptr, ptr %7, align 8
  %61 = getelementptr inbounds %struct._zval_struct, ptr %60, i32 0, i32 2
  store i32 0, ptr %61, align 4
  br label %62

62:                                               ; preds = %48, %1
  %63 = load ptr, ptr %9, align 8
  ret ptr %63
}

; Function Attrs: nounwind uwtable
define ptr @zend_objects_clone_obj(ptr noundef %0) #0 {
  %2 = alloca ptr, align 8
  %3 = alloca ptr, align 8
  %4 = alloca ptr, align 8
  %5 = alloca ptr, align 8
  store ptr %0, ptr %2, align 8
  %6 = load ptr, ptr %2, align 8
  %7 = getelementptr inbounds %struct._zend_object, ptr %6, i32 0, i32 2
  %8 = load ptr, ptr %7, align 8
  %9 = call ptr @zend_objects_new(ptr noundef %8)
  store ptr %9, ptr %3, align 8
  %10 = load ptr, ptr %3, align 8
  %11 = getelementptr inbounds %struct._zend_object, ptr %10, i32 0, i32 2
  %12 = load ptr, ptr %11, align 8
  %13 = getelementptr inbounds %struct._zend_class_entry, ptr %12, i32 0, i32 5
  %14 = load i32, ptr %13, align 8
  %15 = icmp ne i32 %14, 0
  br i1 %15, label %16, label %40

16:                                               ; preds = %1
  %17 = load ptr, ptr %3, align 8
  %18 = getelementptr inbounds %struct._zend_object, ptr %17, i32 0, i32 5
  %19 = getelementptr inbounds [1 x %struct._zval_struct], ptr %18, i64 0, i64 0
  store ptr %19, ptr %4, align 8
  %20 = load ptr, ptr %4, align 8
  %21 = load ptr, ptr %3, align 8
  %22 = getelementptr inbounds %struct._zend_object, ptr %21, i32 0, i32 2
  %23 = load ptr, ptr %22, align 8
  %24 = getelementptr inbounds %struct._zend_class_entry, ptr %23, i32 0, i32 5
  %25 = load i32, ptr %24, align 8
  %26 = sext i32 %25 to i64
  %27 = getelementptr inbounds %struct._zval_struct, ptr %20, i64 %26
  store ptr %27, ptr %5, align 8
  br label %28

28:                                               ; preds = %35, %16
  br label %29

29:                                               ; preds = %28
  %30 = load ptr, ptr %4, align 8
  %31 = getelementptr inbounds %struct._zval_struct, ptr %30, i32 0, i32 1
  store i32 0, ptr %31, align 8
  br label %32

32:                                               ; preds = %29
  %33 = load ptr, ptr %4, align 8
  %34 = getelementptr inbounds %struct._zval_struct, ptr %33, i32 1
  store ptr %34, ptr %4, align 8
  br label %35

35:                                               ; preds = %32
  %36 = load ptr, ptr %4, align 8
  %37 = load ptr, ptr %5, align 8
  %38 = icmp ne ptr %36, %37
  br i1 %38, label %28, label %39

39:                                               ; preds = %35
  br label %40

40:                                               ; preds = %39, %1
  %41 = load ptr, ptr %3, align 8
  %42 = load ptr, ptr %2, align 8
  call void @zend_objects_clone_members(ptr noundef %41, ptr noundef %42)
  %43 = load ptr, ptr %3, align 8
  ret ptr %43
}