; Function Attrs: nounwind uwtable
define noundef ptr @zend_objects_clone_obj(ptr noundef %0) local_unnamed_addr #0 {
  %2 = getelementptr inbounds i8, ptr %0, i64 16
  %3 = load ptr, ptr %2, align 8
  %4 = getelementptr inbounds i8, ptr %3, i64 32
  %5 = load i32, ptr %4, align 8
  %6 = getelementptr inbounds i8, ptr %3, i64 28
  %7 = load i32, ptr %6, align 4
  %8 = lshr i32 %7, 11
  %.lobit.i = and i32 %8, 1
  %9 = xor i32 %.lobit.i, 1
  %10 = sub nsw i32 %5, %9
  %11 = sext i32 %10 to i64
  %12 = shl nsw i64 %11, 4
  %13 = add nsw i64 %12, 56
  %14 = tail call noalias ptr @_emalloc(i64 noundef %13) #8
  store i32 1, ptr %14, align 4
  %15 = getelementptr inbounds i8, ptr %14, i64 4
  store i32 8, ptr %15, align 4
  %16 = getelementptr inbounds i8, ptr %14, i64 16
  store ptr %3, ptr %16, align 8
  %17 = getelementptr inbounds i8, ptr %3, i64 360
  %18 = load ptr, ptr %17, align 8
  %19 = getelementptr inbounds i8, ptr %14, i64 24
  store ptr %18, ptr %19, align 8
  %20 = getelementptr inbounds i8, ptr %14, i64 32
  store ptr null, ptr %20, align 8
  tail call void @zend_objects_store_put(ptr noundef nonnull %14) #6
  %21 = load i32, ptr %6, align 4
  %22 = and i32 %21, 2048
  %.not.i = icmp eq i32 %22, 0
  br i1 %.not.i, label %zend_objects_new.exit, label %23

23:                                               ; preds = %1
  %24 = getelementptr inbounds i8, ptr %14, i64 40
  %25 = load ptr, ptr %16, align 8
  %26 = getelementptr inbounds i8, ptr %25, i64 32
  %27 = load i32, ptr %26, align 8
  %28 = sext i32 %27 to i64
  %29 = getelementptr inbounds %struct._zval_struct, ptr %24, i64 %28
  %30 = getelementptr inbounds i8, ptr %29, i64 8
  store i32 0, ptr %30, align 8
  %31 = getelementptr inbounds i8, ptr %29, i64 12
  store i32 0, ptr %31, align 4
  br label %zend_objects_new.exit

zend_objects_new.exit:                            ; preds = %1, %23
  %32 = load ptr, ptr %16, align 8
  %33 = getelementptr inbounds i8, ptr %32, i64 32
  %34 = load i32, ptr %33, align 8
  %.not = icmp eq i32 %34, 0
  br i1 %.not, label %.loopexit, label %35

35:                                               ; preds = %zend_objects_new.exit
  %36 = getelementptr inbounds i8, ptr %14, i64 40
  %37 = sext i32 %34 to i64
  %38 = getelementptr inbounds %struct._zval_struct, ptr %36, i64 %37
  br label %39

39:                                               ; preds = %39, %35
  %.0 = phi ptr [ %36, %35 ], [ %41, %39 ]
  %40 = getelementptr inbounds i8, ptr %.0, i64 8
  store i32 0, ptr %40, align 8
  %41 = getelementptr inbounds i8, ptr %.0, i64 16
  %.not13 = icmp eq ptr %41, %38
  br i1 %.not13, label %.loopexit, label %39

.loopexit:                                        ; preds = %39, %zend_objects_new.exit
  tail call void @zend_objects_clone_members(ptr noundef nonnull %14, ptr noundef %0)
  ret ptr %14
}